target datalayout = "e-m:e-p270:32:32-p271:32:32-p272:64:64-i64:64-i128:128-f80:128-n8:16:32:64-S128"
target triple = "x86_64-pc-linux-gnu"

%struct.fwd_tree_t = type { ptr, ptr, ptr, ptr, i32, i32, ptr, ptr }

@.str = private unnamed_addr constant [29 x i8] c"%s: pthread_mutex_lock(): %m\00", align 1
@__func__._destroy_tree_fwd = private unnamed_addr constant [18 x i8] c"_destroy_tree_fwd\00", align 1
@.str.1 = private unnamed_addr constant [36 x i8] c"%s:%d %s: pthread_cond_signal(): %m\00", align 1
@.str.2 = private unnamed_addr constant [10 x i8] c"forward.c\00", align 1
@.str.3 = private unnamed_addr constant [31 x i8] c"%s: pthread_mutex_unlock(): %m\00", align 1

; Function Attrs: nounwind uwtable
define dso_local void @_destroy_tree_fwd(ptr noundef %0) #0 {
  %2 = alloca ptr, align 8
  %3 = alloca i32, align 4
  %4 = alloca i32, align 4
  %5 = alloca i32, align 4
  store ptr %0, ptr %2, align 8
  %6 = load ptr, ptr %2, align 8
  %7 = icmp ne ptr %6, null
  br i1 %7, label %8, label %64

8:                                                ; preds = %1
  br label %9

9:                                                ; preds = %8
  %10 = load ptr, ptr %2, align 8
  %11 = getelementptr inbounds nuw %struct.fwd_tree_t, ptr %10, i32 0, i32 6
  %12 = load ptr, ptr %11, align 8
  %13 = icmp ne ptr %12, null
  br i1 %13, label %14, label %18

14:                                               ; preds = %9
  %15 = load ptr, ptr %2, align 8
  %16 = getelementptr inbounds nuw %struct.fwd_tree_t, ptr %15, i32 0, i32 6
  %17 = load ptr, ptr %16, align 8
  call void @hostlist_destroy(ptr noundef %17)
  br label %18

18:                                               ; preds = %14, %9
  %19 = load ptr, ptr %2, align 8
  %20 = getelementptr inbounds nuw %struct.fwd_tree_t, ptr %19, i32 0, i32 6
  store ptr null, ptr %20, align 8
  br label %21

21:                                               ; preds = %18
  br label %22

22:                                               ; preds = %21
  call void @llvm.lifetime.start.p0(i64 4, ptr %3) #8
  %23 = load ptr, ptr %2, align 8
  %24 = getelementptr inbounds nuw %struct.fwd_tree_t, ptr %23, i32 0, i32 7
  %25 = load ptr, ptr %24, align 8
  %26 = call i32 @pthread_mutex_lock(ptr noundef %25) #8
  store i32 %26, ptr %3, align 4
  %27 = load i32, ptr %3, align 4
  %28 = icmp ne i32 %27, 0
  br i1 %28, label %29, label %32

29:                                               ; preds = %22
  %30 = load i32, ptr %3, align 4
  %31 = call ptr @__errno_location() #9
  store i32 %30, ptr %31, align 4
  call void (ptr, ...) @fatal_abort(ptr noundef @.str, ptr noundef @__func__._destroy_tree_fwd) #10
  unreachable

32:                                               ; preds = %22
  call void @llvm.lifetime.end.p0(i64 4, ptr %3) #8
  br label %33

33:                                               ; preds = %32
  %34 = load ptr, ptr %2, align 8
  %35 = getelementptr inbounds nuw %struct.fwd_tree_t, ptr %34, i32 0, i32 1
  %36 = load ptr, ptr %35, align 8
  %37 = load i32, ptr %36, align 4
  %38 = add nsw i32 %37, -1
  store i32 %38, ptr %36, align 4
  br label %39

39:                                               ; preds = %33
  call void @llvm.lifetime.start.p0(i64 4, ptr %4) #8
  %40 = load ptr, ptr %2, align 8
  %41 = getelementptr inbounds nuw %struct.fwd_tree_t, ptr %40, i32 0, i32 0
  %42 = load ptr, ptr %41, align 8
  %43 = call i32 @pthread_cond_signal(ptr noundef %42) #8
  store i32 %43, ptr %4, align 4
  %44 = load i32, ptr %4, align 4
  %45 = icmp ne i32 %44, 0
  br i1 %45, label %46, label %50

46:                                               ; preds = %39
  %47 = load i32, ptr %4, align 4
  %48 = call ptr @__errno_location() #9
  store i32 %47, ptr %48, align 4
  %49 = call i32 (ptr, ...) @error(ptr noundef @.str.1, ptr noundef @.str.2, i32 noundef 93, ptr noundef @__func__._destroy_tree_fwd)
  br label %50

50:                                               ; preds = %46, %39
  call void @llvm.lifetime.end.p0(i64 4, ptr %4) #8
  br label %51

51:                                               ; preds = %50
  br label %52

52:                                               ; preds = %51
  call void @llvm.lifetime.start.p0(i64 4, ptr %5) #8
  %53 = load ptr, ptr %2, align 8
  %54 = getelementptr inbounds nuw %struct.fwd_tree_t, ptr %53, i32 0, i32 7
  %55 = load ptr, ptr %54, align 8
  %56 = call i32 @pthread_mutex_unlock(ptr noundef %55) #8
  store i32 %56, ptr %5, align 4
  %57 = load i32, ptr %5, align 4
  %58 = icmp ne i32 %57, 0
  br i1 %58, label %59, label %62

59:                                               ; preds = %52
  %60 = load i32, ptr %5, align 4
  %61 = call ptr @__errno_location() #9
  store i32 %60, ptr %61, align 4
  call void (ptr, ...) @fatal_abort(ptr noundef @.str.3, ptr noundef @__func__._destroy_tree_fwd) #10
  unreachable

62:                                               ; preds = %52
  call void @llvm.lifetime.end.p0(i64 4, ptr %5) #8
  br label %63

63:                                               ; preds = %62
  call void @slurm_xfree(ptr noundef %2)
  br label %64

64:                                               ; preds = %63, %1
  ret void
}