; Function Attrs: nounwind uwtable
define dso_local void @_destroy_tree_fwd(ptr noundef %0) local_unnamed_addr #0 {
  %2 = alloca ptr, align 8
  store ptr %0, ptr %2, align 8
  %.not = icmp eq ptr %0, null
  br i1 %.not, label %29, label %3

3:                                                ; preds = %1
  %4 = getelementptr inbounds nuw i8, ptr %0, i64 40
  %5 = load ptr, ptr %4, align 8
  %.not10 = icmp eq ptr %5, null
  br i1 %.not10, label %7, label %6

6:                                                ; preds = %3
  tail call void @hostlist_destroy(ptr noundef nonnull %5) #10
  br label %7

7:                                                ; preds = %6, %3
  store ptr null, ptr %4, align 8
  %8 = getelementptr inbounds nuw i8, ptr %0, i64 48
  %9 = load ptr, ptr %8, align 8
  %10 = tail call i32 @pthread_mutex_lock(ptr noundef %9) #10
  %.not11 = icmp eq i32 %10, 0
  br i1 %.not11, label %13, label %11

11:                                               ; preds = %7
  %12 = tail call ptr @__errno_location() #11
  store i32 %10, ptr %12, align 4
  tail call void (ptr, ...) @fatal_abort(ptr noundef nonnull @.str, ptr noundef nonnull @__func__._destroy_tree_fwd) #12
  unreachable

13:                                               ; preds = %7
  %14 = getelementptr inbounds nuw i8, ptr %0, i64 8
  %15 = load ptr, ptr %14, align 8
  %16 = load i32, ptr %15, align 4
  %17 = add nsw i32 %16, -1
  store i32 %17, ptr %15, align 4
  %18 = load ptr, ptr %0, align 8
  %19 = tail call i32 @pthread_cond_signal(ptr noundef %18) #10
  %.not12 = icmp eq i32 %19, 0
  br i1 %.not12, label %23, label %20

20:                                               ; preds = %13
  %21 = tail call ptr @__errno_location() #11
  store i32 %19, ptr %21, align 4
  %22 = tail call i32 (ptr, ...) @error(ptr noundef nonnull @.str.1, ptr noundef nonnull @.str.2, i32 noundef 93, ptr noundef nonnull @__func__._destroy_tree_fwd) #10
  br label %23

23:                                               ; preds = %20, %13
  %24 = load ptr, ptr %8, align 8
  %25 = tail call i32 @pthread_mutex_unlock(ptr noundef %24) #10
  %.not13 = icmp eq i32 %25, 0
  br i1 %.not13, label %28, label %26

26:                                               ; preds = %23
  %27 = tail call ptr @__errno_location() #11
  store i32 %25, ptr %27, align 4
  tail call void (ptr, ...) @fatal_abort(ptr noundef nonnull @.str.3, ptr noundef nonnull @__func__._destroy_tree_fwd) #12
  unreachable

28:                                               ; preds = %23
  call void @slurm_xfree(ptr noundef nonnull %2) #10
  br label %29

29:                                               ; preds = %28, %1
  ret void
}